target datalayout = "e-m:e-p270:32:32-p271:32:32-p272:64:64-i64:64-i128:128-f80:128-n8:16:32:64-S128"
target triple = "x86_64-pc-linux-gnu"

@libctx = internal global ptr null, align 8
@.str.14 = private unnamed_addr constant [30 x i8] c"../openssl/test/quicapitest.c\00", align 1
@cert = internal global ptr null, align 8
@ccert = internal global ptr null, align 8
@cauthca = internal global ptr null, align 8
@privkey = internal global ptr null, align 8
@cprivkey = internal global ptr null, align 8
@.str.62 = private unnamed_addr constant [5 x i8] c"cctx\00", align 1
@.str.67 = private unnamed_addr constant [49 x i8] c"qtest_create_quic_connection(qtserv, clientquic)\00", align 1
@.str.71 = private unnamed_addr constant [49 x i8] c"SSL_write_ex(clientquic, msg, msglen, &numbytes)\00", align 1
@.str.72 = private unnamed_addr constant [9 x i8] c"numbytes\00", align 1
@.str.73 = private unnamed_addr constant [7 x i8] c"msglen\00", align 1
@.str.76 = private unnamed_addr constant [4 x i8] c"buf\00", align 1
@.str.77 = private unnamed_addr constant [4 x i8] c"msg\00", align 1
@.str.91 = private unnamed_addr constant [35 x i8] c"qtest_shutdown(qtserv, clientquic)\00", align 1
@.str.98 = private unnamed_addr constant [53 x i8] c"SSL_read_ex(clientquic, buf, sizeof(buf), &numbytes)\00", align 1
@test_client_auth.msg = internal global ptr @.str.60, align 8
@.str.234 = private unnamed_addr constant [5 x i8] c"sctx\00", align 1
@.str.235 = private unnamed_addr constant [40 x i8] c"SSL_CTX_load_verify_file(sctx, cauthca)\00", align 1
@.str.236 = private unnamed_addr constant [48 x i8] c"SSL_CTX_use_certificate_chain_file(cctx, ccert)\00", align 1
@.str.237 = private unnamed_addr constant [62 x i8] c"SSL_CTX_use_PrivateKey_file(cctx, cprivkey, SSL_FILETYPE_PEM)\00", align 1
@.str.238 = private unnamed_addr constant [98 x i8] c"qtest_create_quic_objects(libctx, cctx, sctx, cert, privkey, 0, &qtserv, &clientquic, NULL, NULL)\00", align 1
@.str.239 = private unnamed_addr constant [50 x i8] c"ssl_ctx_add_large_cert_chain(libctx, cctx, ccert)\00", align 1
@.str.240 = private unnamed_addr constant [49 x i8] c"ssl_ctx_add_large_cert_chain(libctx, sctx, cert)\00", align 1
@.str.241 = private unnamed_addr constant [76 x i8] c"ossl_quic_tserver_write(qtserv, 0, (unsigned char *)msg, msglen, &numbytes)\00", align 1

; Function Attrs: nounwind uwtable
define internal i32 @test_client_auth(i32 noundef %0) #0 {
  %2 = alloca i32, align 4
  %3 = alloca ptr, align 8
  %4 = alloca ptr, align 8
  %5 = alloca ptr, align 8
  %6 = alloca ptr, align 8
  %7 = alloca i32, align 4
  %8 = alloca [20 x i8], align 16
  %9 = alloca i64, align 8
  %10 = alloca i64, align 8
  store i32 %0, ptr %2, align 4, !tbaa !13
  call void @llvm.lifetime.start.p0(i64 8, ptr %3) #8
  %11 = load ptr, ptr @libctx, align 8, !tbaa !4
  %12 = call ptr @OSSL_QUIC_client_method()
  %13 = call ptr @SSL_CTX_new_ex(ptr noundef %11, ptr noundef null, ptr noundef %12)
  store ptr %13, ptr %3, align 8, !tbaa !15
  call void @llvm.lifetime.start.p0(i64 8, ptr %4) #8
  %14 = load ptr, ptr @libctx, align 8, !tbaa !4
  %15 = call ptr @TLS_method()
  %16 = call ptr @SSL_CTX_new_ex(ptr noundef %14, ptr noundef null, ptr noundef %15)
  store ptr %16, ptr %4, align 8, !tbaa !15
  call void @llvm.lifetime.start.p0(i64 8, ptr %5) #8
  store ptr null, ptr %5, align 8, !tbaa !17
  call void @llvm.lifetime.start.p0(i64 8, ptr %6) #8
  store ptr null, ptr %6, align 8, !tbaa !19
  call void @llvm.lifetime.start.p0(i64 4, ptr %7) #8
  store i32 0, ptr %7, align 4, !tbaa !13
  call void @llvm.lifetime.start.p0(i64 20, ptr %8) #8
  call void @llvm.lifetime.start.p0(i64 8, ptr %9) #8
  %17 = load ptr, ptr @test_client_auth.msg, align 8, !tbaa !11
  %18 = call i64 @strlen(ptr noundef %17) #9
  store i64 %18, ptr %9, align 8, !tbaa !21
  call void @llvm.lifetime.start.p0(i64 8, ptr %10) #8
  store i64 0, ptr %10, align 8, !tbaa !21
  %19 = load ptr, ptr %3, align 8, !tbaa !15
  %20 = call i32 @test_ptr(ptr noundef @.str.14, i32 noundef 1381, ptr noundef @.str.62, ptr noundef %19)
  %21 = icmp ne i32 %20, 0
  br i1 %21, label %22, label %26

22:                                               ; preds = %1
  %23 = load ptr, ptr %4, align 8, !tbaa !15
  %24 = call i32 @test_ptr(ptr noundef @.str.14, i32 noundef 1381, ptr noundef @.str.234, ptr noundef %23)
  %25 = icmp ne i32 %24, 0
  br i1 %25, label %27, label %26

26:                                               ; preds = %22, %1
  br label %176

27:                                               ; preds = %22
  %28 = load ptr, ptr %4, align 8, !tbaa !15
  call void @SSL_CTX_set_verify(ptr noundef %28, i32 noundef 7, ptr noundef null)
  %29 = load ptr, ptr %4, align 8, !tbaa !15
  %30 = load ptr, ptr @cauthca, align 8, !tbaa !11
  %31 = call i32 @SSL_CTX_load_verify_file(ptr noundef %29, ptr noundef %30)
  %32 = icmp ne i32 %31, 0
  %33 = zext i1 %32 to i32
  %34 = call i32 @test_true(ptr noundef @.str.14, i32 noundef 1387, ptr noundef @.str.235, i32 noundef %33)
  %35 = icmp ne i32 %34, 0
  br i1 %35, label %37, label %36

36:                                               ; preds = %27
  br label %176

37:                                               ; preds = %27
  %38 = load i32, ptr %2, align 4, !tbaa !13
  %39 = icmp sgt i32 %38, 0
  br i1 %39, label %40, label %57

40:                                               ; preds = %37
  %41 = load ptr, ptr %3, align 8, !tbaa !15
  %42 = load ptr, ptr @ccert, align 8, !tbaa !11
  %43 = call i32 @SSL_CTX_use_certificate_chain_file(ptr noundef %41, ptr noundef %42)
  %44 = icmp ne i32 %43, 0
  %45 = zext i1 %44 to i32
  %46 = call i32 @test_true(ptr noundef @.str.14, i32 noundef 1391, ptr noundef @.str.236, i32 noundef %45)
  %47 = icmp ne i32 %46, 0
  br i1 %47, label %48, label %56

48:                                               ; preds = %40
  %49 = load ptr, ptr %3, align 8, !tbaa !15
  %50 = load ptr, ptr @cprivkey, align 8, !tbaa !11
  %51 = call i32 @SSL_CTX_use_PrivateKey_file(ptr noundef %49, ptr noundef %50, i32 noundef 1)
  %52 = icmp ne i32 %51, 0
  %53 = zext i1 %52 to i32
  %54 = call i32 @test_true(ptr noundef @.str.14, i32 noundef 1393, ptr noundef @.str.237, i32 noundef %53)
  %55 = icmp ne i32 %54, 0
  br i1 %55, label %57, label %56

56:                                               ; preds = %48, %40
  br label %176

57:                                               ; preds = %48, %37
  %58 = load ptr, ptr @libctx, align 8, !tbaa !4
  %59 = load ptr, ptr %3, align 8, !tbaa !15
  %60 = load ptr, ptr %4, align 8, !tbaa !15
  %61 = load ptr, ptr @cert, align 8, !tbaa !11
  %62 = load ptr, ptr @privkey, align 8, !tbaa !11
  %63 = call i32 @qtest_create_quic_objects(ptr noundef %58, ptr noundef %59, ptr noundef %60, ptr noundef %61, ptr noundef %62, i32 noundef 0, ptr noundef %6, ptr noundef %5, ptr noundef null, ptr noundef null)
  %64 = icmp ne i32 %63, 0
  %65 = zext i1 %64 to i32
  %66 = call i32 @test_true(ptr noundef @.str.14, i32 noundef 1398, ptr noundef @.str.238, i32 noundef %65)
  %67 = icmp ne i32 %66, 0
  br i1 %67, label %69, label %68

68:                                               ; preds = %57
  br label %176

69:                                               ; preds = %57
  %70 = load i32, ptr %2, align 4, !tbaa !13
  %71 = icmp sgt i32 %70, 1
  br i1 %71, label %72, label %92

72:                                               ; preds = %69
  %73 = load ptr, ptr @libctx, align 8, !tbaa !4
  %74 = load ptr, ptr %3, align 8, !tbaa !15
  %75 = load ptr, ptr @ccert, align 8, !tbaa !11
  %76 = call i32 @ssl_ctx_add_large_cert_chain(ptr noundef %73, ptr noundef %74, ptr noundef %75)
  %77 = icmp ne i32 %76, 0
  %78 = zext i1 %77 to i32
  %79 = call i32 @test_true(ptr noundef @.str.14, i32 noundef 1402, ptr noundef @.str.239, i32 noundef %78)
  %80 = icmp ne i32 %79, 0
  br i1 %80, label %81, label %90

81:                                               ; preds = %72
  %82 = load ptr, ptr @libctx, align 8, !tbaa !4
  %83 = load ptr, ptr %4, align 8, !tbaa !15
  %84 = load ptr, ptr @cert, align 8, !tbaa !11
  %85 = call i32 @ssl_ctx_add_large_cert_chain(ptr noundef %82, ptr noundef %83, ptr noundef %84)
  %86 = icmp ne i32 %85, 0
  %87 = zext i1 %86 to i32
  %88 = call i32 @test_true(ptr noundef @.str.14, i32 noundef 1403, ptr noundef @.str.240, i32 noundef %87)
  %89 = icmp ne i32 %88, 0
  br i1 %89, label %91, label %90

90:                                               ; preds = %81, %72
  br label %176

91:                                               ; preds = %81
  br label %92

92:                                               ; preds = %91, %69
  %93 = load i32, ptr %2, align 4, !tbaa !13
  %94 = icmp eq i32 %93, 0
  br i1 %94, label %95, label %105

95:                                               ; preds = %92
  %96 = load ptr, ptr %6, align 8, !tbaa !19
  %97 = load ptr, ptr %5, align 8, !tbaa !17
  %98 = call i32 @qtest_create_quic_connection(ptr noundef %96, ptr noundef %97)
  %99 = icmp ne i32 %98, 0
  %100 = zext i1 %99 to i32
  %101 = call i32 @test_false(ptr noundef @.str.14, i32 noundef 1408, ptr noundef @.str.67, i32 noundef %100)
  %102 = icmp ne i32 %101, 0
  br i1 %102, label %104, label %103

103:                                              ; preds = %95
  br label %176

104:                                              ; preds = %95
  store i32 1, ptr %7, align 4, !tbaa !13
  br label %176

105:                                              ; preds = %92
  %106 = load ptr, ptr %6, align 8, !tbaa !19
  %107 = load ptr, ptr %5, align 8, !tbaa !17
  %108 = call i32 @qtest_create_quic_connection(ptr noundef %106, ptr noundef %107)
  %109 = icmp ne i32 %108, 0
  %110 = zext i1 %109 to i32
  %111 = call i32 @test_true(ptr noundef @.str.14, i32 noundef 1416, ptr noundef @.str.67, i32 noundef %110)
  %112 = icmp ne i32 %111, 0
  br i1 %112, label %114, label %113

113:                                              ; preds = %105
  br label %176

114:                                              ; preds = %105
  %115 = load ptr, ptr %5, align 8, !tbaa !17
  %116 = load ptr, ptr @test_client_auth.msg, align 8, !tbaa !11
  %117 = load i64, ptr %9, align 8, !tbaa !21
  %118 = call i32 @SSL_write_ex(ptr noundef %115, ptr noundef %116, i64 noundef %117, ptr noundef %10)
  %119 = icmp ne i32 %118, 0
  %120 = zext i1 %119 to i32
  %121 = call i32 @test_true(ptr noundef @.str.14, i32 noundef 1420, ptr noundef @.str.71, i32 noundef %120)
  %122 = icmp ne i32 %121, 0
  br i1 %122, label %123, label %128

123:                                              ; preds = %114
  %124 = load i64, ptr %10, align 8, !tbaa !21
  %125 = load i64, ptr %9, align 8, !tbaa !21
  %126 = call i32 @test_size_t_eq(ptr noundef @.str.14, i32 noundef 1421, ptr noundef @.str.72, ptr noundef @.str.73, i64 noundef %124, i64 noundef %125)
  %127 = icmp ne i32 %126, 0
  br i1 %127, label %129, label %128

128:                                              ; preds = %123, %114
  br label %176

129:                                              ; preds = %123
  %130 = load ptr, ptr %6, align 8, !tbaa !19
  %131 = call i32 @ossl_quic_tserver_tick(ptr noundef %130)
  %132 = load ptr, ptr %6, align 8, !tbaa !19
  %133 = load ptr, ptr @test_client_auth.msg, align 8, !tbaa !11
  %134 = load i64, ptr %9, align 8, !tbaa !21
  %135 = call i32 @ossl_quic_tserver_write(ptr noundef %132, i64 noundef 0, ptr noundef %133, i64 noundef %134, ptr noundef %10)
  %136 = icmp ne i32 %135, 0
  %137 = zext i1 %136 to i32
  %138 = call i32 @test_true(ptr noundef @.str.14, i32 noundef 1427, ptr noundef @.str.241, i32 noundef %137)
  %139 = icmp ne i32 %138, 0
  br i1 %139, label %141, label %140

140:                                              ; preds = %129
  br label %176

141:                                              ; preds = %129
  %142 = load ptr, ptr %6, align 8, !tbaa !19
  %143 = call i32 @ossl_quic_tserver_tick(ptr noundef %142)
  %144 = load ptr, ptr %5, align 8, !tbaa !17
  %145 = call i32 @SSL_handle_events(ptr noundef %144)
  %146 = load ptr, ptr %5, align 8, !tbaa !17
  %147 = getelementptr inbounds [20 x i8], ptr %8, i64 0, i64 0
  %148 = call i32 @SSL_read_ex(ptr noundef %146, ptr noundef %147, i64 noundef 20, ptr noundef %10)
  %149 = icmp ne i32 %148, 0
  %150 = zext i1 %149 to i32
  %151 = call i32 @test_true(ptr noundef @.str.14, i32 noundef 1433, ptr noundef @.str.98, i32 noundef %150)
  %152 = icmp ne i32 %151, 0
  br i1 %152, label %153, label %165

153:                                              ; preds = %141
  %154 = load i64, ptr %10, align 8, !tbaa !21
  %155 = load i64, ptr %9, align 8, !tbaa !21
  %156 = call i32 @test_size_t_eq(ptr noundef @.str.14, i32 noundef 1434, ptr noundef @.str.72, ptr noundef @.str.73, i64 noundef %154, i64 noundef %155)
  %157 = icmp ne i32 %156, 0
  br i1 %157, label %158, label %165

158:                                              ; preds = %153
  %159 = getelementptr inbounds [20 x i8], ptr %8, i64 0, i64 0
  %160 = load i64, ptr %10, align 8, !tbaa !21
  %161 = load ptr, ptr @test_client_auth.msg, align 8, !tbaa !11
  %162 = load i64, ptr %9, align 8, !tbaa !21
  %163 = call i32 @test_mem_eq(ptr noundef @.str.14, i32 noundef 1435, ptr noundef @.str.76, ptr noundef @.str.77, ptr noundef %159, i64 noundef %160, ptr noundef %161, i64 noundef %162)
  %164 = icmp ne i32 %163, 0
  br i1 %164, label %166, label %165

165:                                              ; preds = %158, %153, %141
  br label %176

166:                                              ; preds = %158
  %167 = load ptr, ptr %6, align 8, !tbaa !19
  %168 = load ptr, ptr %5, align 8, !tbaa !17
  %169 = call i32 @qtest_shutdown(ptr noundef %167, ptr noundef %168)
  %170 = icmp ne i32 %169, 0
  %171 = zext i1 %170 to i32
  %172 = call i32 @test_true(ptr noundef @.str.14, i32 noundef 1438, ptr noundef @.str.91, i32 noundef %171)
  %173 = icmp ne i32 %172, 0
  br i1 %173, label %175, label %174

174:                                              ; preds = %166
  br label %176

175:                                              ; preds = %166
  store i32 1, ptr %7, align 4, !tbaa !13
  br label %176

176:                                              ; preds = %175, %174, %165, %140, %128, %113, %104, %103, %90, %68, %56, %36, %26
  %177 = load ptr, ptr %5, align 8, !tbaa !17
  call void @SSL_free(ptr noundef %177)
  %178 = load ptr, ptr %6, align 8, !tbaa !19
  call void @ossl_quic_tserver_free(ptr noundef %178)
  %179 = load ptr, ptr %4, align 8, !tbaa !15
  call void @SSL_CTX_free(ptr noundef %179)
  %180 = load ptr, ptr %3, align 8, !tbaa !15
  call void @SSL_CTX_free(ptr noundef %180)
  %181 = load i32, ptr %7, align 4, !tbaa !13
  call void @llvm.lifetime.end.p0(i64 8, ptr %10) #8
  call void @llvm.lifetime.end.p0(i64 8, ptr %9) #8
  call void @llvm.lifetime.end.p0(i64 20, ptr %8) #8
  call void @llvm.lifetime.end.p0(i64 4, ptr %7) #8
  call void @llvm.lifetime.end.p0(i64 8, ptr %6) #8
  call void @llvm.lifetime.end.p0(i64 8, ptr %5) #8
  call void @llvm.lifetime.end.p0(i64 8, ptr %4) #8
  call void @llvm.lifetime.end.p0(i64 8, ptr %3) #8
  ret i32 %181
}