; Function Attrs: nounwind uwtable
define internal range(i32 0, 2) i32 @test_client_auth(i32 noundef %0) #1 {
  %2 = alloca ptr, align 8
  %3 = alloca ptr, align 8
  %4 = alloca [20 x i8], align 16
  %5 = alloca i64, align 8
  %6 = load ptr, ptr @libctx, align 8, !tbaa !4
  %7 = tail call ptr @OSSL_QUIC_client_method() #10
  %8 = tail call ptr @SSL_CTX_new_ex(ptr noundef %6, ptr noundef null, ptr noundef %7) #10
  %9 = load ptr, ptr @libctx, align 8, !tbaa !4
  %10 = tail call ptr @TLS_method() #10
  %11 = tail call ptr @SSL_CTX_new_ex(ptr noundef %9, ptr noundef null, ptr noundef %10) #10
  call void @llvm.lifetime.start.p0(i64 8, ptr nonnull %2) #10
  store ptr null, ptr %2, align 8, !tbaa !13
  call void @llvm.lifetime.start.p0(i64 8, ptr nonnull %3) #10
  store ptr null, ptr %3, align 8, !tbaa !15
  call void @llvm.lifetime.start.p0(i64 20, ptr nonnull %4) #10
  call void @llvm.lifetime.start.p0(i64 8, ptr nonnull %5) #10
  store i64 0, ptr %5, align 8, !tbaa !17
  %12 = tail call i32 @test_ptr(ptr noundef nonnull @.str.14, i32 noundef 1381, ptr noundef nonnull @.str.62, ptr noundef %8) #10
  %.not = icmp eq i32 %12, 0
  br i1 %.not, label %114, label %13

13:                                               ; preds = %1
  %14 = tail call i32 @test_ptr(ptr noundef nonnull @.str.14, i32 noundef 1381, ptr noundef nonnull @.str.234, ptr noundef %11) #10
  %.not20 = icmp eq i32 %14, 0
  br i1 %.not20, label %114, label %15

15:                                               ; preds = %13
  tail call void @SSL_CTX_set_verify(ptr noundef %11, i32 noundef 7, ptr noundef null) #10
  %16 = load ptr, ptr @cauthca, align 8, !tbaa !11
  %17 = tail call i32 @SSL_CTX_load_verify_file(ptr noundef %11, ptr noundef %16) #10
  %18 = icmp ne i32 %17, 0
  %19 = zext i1 %18 to i32
  %20 = tail call i32 @test_true(ptr noundef nonnull @.str.14, i32 noundef 1387, ptr noundef nonnull @.str.235, i32 noundef %19) #10
  %.not21 = icmp eq i32 %20, 0
  br i1 %.not21, label %114, label %21

21:                                               ; preds = %15
  %22 = icmp sgt i32 %0, 0
  br i1 %22, label %23, label %35

23:                                               ; preds = %21
  %24 = load ptr, ptr @ccert, align 8, !tbaa !11
  %25 = tail call i32 @SSL_CTX_use_certificate_chain_file(ptr noundef %8, ptr noundef %24) #10
  %26 = icmp ne i32 %25, 0
  %27 = zext i1 %26 to i32
  %28 = tail call i32 @test_true(ptr noundef nonnull @.str.14, i32 noundef 1391, ptr noundef nonnull @.str.236, i32 noundef %27) #10
  %.not22 = icmp eq i32 %28, 0
  br i1 %.not22, label %114, label %29

29:                                               ; preds = %23
  %30 = load ptr, ptr @cprivkey, align 8, !tbaa !11
  %31 = tail call i32 @SSL_CTX_use_PrivateKey_file(ptr noundef %8, ptr noundef %30, i32 noundef 1) #10
  %32 = icmp ne i32 %31, 0
  %33 = zext i1 %32 to i32
  %34 = tail call i32 @test_true(ptr noundef nonnull @.str.14, i32 noundef 1393, ptr noundef nonnull @.str.237, i32 noundef %33) #10
  %.not23 = icmp eq i32 %34, 0
  br i1 %.not23, label %114, label %35

35:                                               ; preds = %29, %21
  %36 = load ptr, ptr @libctx, align 8, !tbaa !4
  %37 = load ptr, ptr @cert, align 8, !tbaa !11
  %38 = load ptr, ptr @privkey, align 8, !tbaa !11
  %39 = call i32 @qtest_create_quic_objects(ptr noundef %36, ptr noundef %8, ptr noundef %11, ptr noundef %37, ptr noundef %38, i32 noundef 0, ptr noundef nonnull %3, ptr noundef nonnull %2, ptr noundef null, ptr noundef null) #10
  %40 = icmp ne i32 %39, 0
  %41 = zext i1 %40 to i32
  %42 = call i32 @test_true(ptr noundef nonnull @.str.14, i32 noundef 1398, ptr noundef nonnull @.str.238, i32 noundef %41) #10
  %.not24 = icmp eq i32 %42, 0
  br i1 %.not24, label %114, label %43

43:                                               ; preds = %35
  %44 = icmp sgt i32 %0, 1
  br i1 %44, label %45, label %59

45:                                               ; preds = %43
  %46 = load ptr, ptr @libctx, align 8, !tbaa !4
  %47 = load ptr, ptr @ccert, align 8, !tbaa !11
  %48 = call i32 @ssl_ctx_add_large_cert_chain(ptr noundef %46, ptr noundef %8, ptr noundef %47) #10
  %49 = icmp ne i32 %48, 0
  %50 = zext i1 %49 to i32
  %51 = call i32 @test_true(ptr noundef nonnull @.str.14, i32 noundef 1402, ptr noundef nonnull @.str.239, i32 noundef %50) #10
  %.not25 = icmp eq i32 %51, 0
  br i1 %.not25, label %114, label %52

52:                                               ; preds = %45
  %53 = load ptr, ptr @libctx, align 8, !tbaa !4
  %54 = load ptr, ptr @cert, align 8, !tbaa !11
  %55 = call i32 @ssl_ctx_add_large_cert_chain(ptr noundef %53, ptr noundef %11, ptr noundef %54) #10
  %56 = icmp ne i32 %55, 0
  %57 = zext i1 %56 to i32
  %58 = call i32 @test_true(ptr noundef nonnull @.str.14, i32 noundef 1403, ptr noundef nonnull @.str.240, i32 noundef %57) #10
  %.not26 = icmp eq i32 %58, 0
  br i1 %.not26, label %114, label %.thread

59:                                               ; preds = %43
  %60 = icmp eq i32 %0, 0
  br i1 %60, label %61, label %.thread

61:                                               ; preds = %59
  %62 = load ptr, ptr %3, align 8, !tbaa !15
  %63 = load ptr, ptr %2, align 8, !tbaa !13
  %64 = call i32 @qtest_create_quic_connection(ptr noundef %62, ptr noundef %63) #10
  %65 = icmp ne i32 %64, 0
  %66 = zext i1 %65 to i32
  %67 = call i32 @test_false(ptr noundef nonnull @.str.14, i32 noundef 1408, ptr noundef nonnull @.str.67, i32 noundef %66) #10
  %.not35 = icmp ne i32 %67, 0
  br label %114

.thread:                                          ; preds = %52, %59
  %68 = load ptr, ptr %3, align 8, !tbaa !15
  %69 = load ptr, ptr %2, align 8, !tbaa !13
  %70 = call i32 @qtest_create_quic_connection(ptr noundef %68, ptr noundef %69) #10
  %71 = icmp ne i32 %70, 0
  %72 = zext i1 %71 to i32
  %73 = call i32 @test_true(ptr noundef nonnull @.str.14, i32 noundef 1416, ptr noundef nonnull @.str.67, i32 noundef %72) #10
  %.not27 = icmp eq i32 %73, 0
  br i1 %.not27, label %114, label %74

74:                                               ; preds = %.thread
  %75 = load ptr, ptr %2, align 8, !tbaa !13
  %76 = call i32 @SSL_write_ex(ptr noundef %75, ptr noundef nonnull @.str.60, i64 noundef 14, ptr noundef nonnull %5) #10
  %77 = icmp ne i32 %76, 0
  %78 = zext i1 %77 to i32
  %79 = call i32 @test_true(ptr noundef nonnull @.str.14, i32 noundef 1420, ptr noundef nonnull @.str.71, i32 noundef %78) #10
  %.not28 = icmp eq i32 %79, 0
  br i1 %.not28, label %114, label %80

80:                                               ; preds = %74
  %81 = load i64, ptr %5, align 8, !tbaa !17
  %82 = call i32 @test_size_t_eq(ptr noundef nonnull @.str.14, i32 noundef 1421, ptr noundef nonnull @.str.72, ptr noundef nonnull @.str.73, i64 noundef %81, i64 noundef 14) #10
  %.not29 = icmp eq i32 %82, 0
  br i1 %.not29, label %114, label %83

83:                                               ; preds = %80
  %84 = load ptr, ptr %3, align 8, !tbaa !15
  %85 = call i32 @ossl_quic_tserver_tick(ptr noundef %84) #10
  %86 = load ptr, ptr %3, align 8, !tbaa !15
  %87 = call i32 @ossl_quic_tserver_write(ptr noundef %86, i64 noundef 0, ptr noundef nonnull @.str.60, i64 noundef 14, ptr noundef nonnull %5) #10
  %88 = icmp ne i32 %87, 0
  %89 = zext i1 %88 to i32
  %90 = call i32 @test_true(ptr noundef nonnull @.str.14, i32 noundef 1427, ptr noundef nonnull @.str.241, i32 noundef %89) #10
  %.not30 = icmp eq i32 %90, 0
  br i1 %.not30, label %114, label %91

91:                                               ; preds = %83
  %92 = load ptr, ptr %3, align 8, !tbaa !15
  %93 = call i32 @ossl_quic_tserver_tick(ptr noundef %92) #10
  %94 = load ptr, ptr %2, align 8, !tbaa !13
  %95 = call i32 @SSL_handle_events(ptr noundef %94) #10
  %96 = load ptr, ptr %2, align 8, !tbaa !13
  %97 = call i32 @SSL_read_ex(ptr noundef %96, ptr noundef nonnull %4, i64 noundef 20, ptr noundef nonnull %5) #10
  %98 = icmp ne i32 %97, 0
  %99 = zext i1 %98 to i32
  %100 = call i32 @test_true(ptr noundef nonnull @.str.14, i32 noundef 1433, ptr noundef nonnull @.str.98, i32 noundef %99) #10
  %.not31 = icmp eq i32 %100, 0
  br i1 %.not31, label %114, label %101

101:                                              ; preds = %91
  %102 = load i64, ptr %5, align 8, !tbaa !17
  %103 = call i32 @test_size_t_eq(ptr noundef nonnull @.str.14, i32 noundef 1434, ptr noundef nonnull @.str.72, ptr noundef nonnull @.str.73, i64 noundef %102, i64 noundef 14) #10
  %.not32 = icmp eq i32 %103, 0
  br i1 %.not32, label %114, label %104

104:                                              ; preds = %101
  %105 = load i64, ptr %5, align 8, !tbaa !17
  %106 = call i32 @test_mem_eq(ptr noundef nonnull @.str.14, i32 noundef 1435, ptr noundef nonnull @.str.76, ptr noundef nonnull @.str.77, ptr noundef nonnull %4, i64 noundef %105, ptr noundef nonnull @.str.60, i64 noundef 14) #10
  %.not33 = icmp eq i32 %106, 0
  br i1 %.not33, label %114, label %107

107:                                              ; preds = %104
  %108 = load ptr, ptr %3, align 8, !tbaa !15
  %109 = load ptr, ptr %2, align 8, !tbaa !13
  %110 = call i32 @qtest_shutdown(ptr noundef %108, ptr noundef %109) #10
  %111 = icmp ne i32 %110, 0
  %112 = zext i1 %111 to i32
  %113 = call i32 @test_true(ptr noundef nonnull @.str.14, i32 noundef 1438, ptr noundef nonnull @.str.91, i32 noundef %112) #10
  %.not34 = icmp ne i32 %113, 0
  br label %114

114:                                              ; preds = %107, %61, %91, %101, %104, %83, %74, %80, %.thread, %45, %52, %35, %23, %29, %15, %1, %13
  %.0.shrunk = phi i1 [ false, %104 ], [ false, %101 ], [ false, %91 ], [ false, %83 ], [ false, %80 ], [ false, %74 ], [ false, %.thread ], [ false, %52 ], [ false, %45 ], [ false, %35 ], [ false, %29 ], [ false, %23 ], [ false, %15 ], [ false, %13 ], [ false, %1 ], [ %.not35, %61 ], [ %.not34, %107 ]
  %.0 = zext i1 %.0.shrunk to i32
  %115 = load ptr, ptr %2, align 8, !tbaa !13
  call void @SSL_free(ptr noundef %115) #10
  %116 = load ptr, ptr %3, align 8, !tbaa !15
  call void @ossl_quic_tserver_free(ptr noundef %116) #10
  call void @SSL_CTX_free(ptr noundef %11) #10
  call void @SSL_CTX_free(ptr noundef %8) #10
  call void @llvm.lifetime.end.p0(i64 8, ptr nonnull %5) #10
  call void @llvm.lifetime.end.p0(i64 20, ptr nonnull %4) #10
  call void @llvm.lifetime.end.p0(i64 8, ptr nonnull %3) #10
  call void @llvm.lifetime.end.p0(i64 8, ptr nonnull %2) #10
  ret i32 %.0
}